target datalayout = "e-m:e-p270:32:32-p271:32:32-p272:64:64-i64:64-i128:128-f80:128-n8:16:32:64-S128"
target triple = "x86_64-pc-linux-gnu"

%union.pthread_mutex_t = type { %struct.__pthread_mutex_s }
%struct.__pthread_mutex_s = type { i32, i32, i32, i32, i32, i16, i16, %struct.__pthread_internal_list }
%struct.__pthread_internal_list = type { ptr, ptr }
%struct.settings = type { i64, i32, i32, i32, ptr, i32, i32, i32, ptr, ptr, i32, double, i32, i32, i32, i8, i32, i32, i8, i32, i32, i32, i32, i32, i32, i8, i8, i8, i8, i8, i8, i8, i32, i32, double, double, i32, i32, i8, i32, i8, i8, ptr, i32, i32, i32, i32, double, double, i32, i8, i32, i32, i32, i32, i32, i8, i8, i8, ptr, i32, i32, i32, i32, i32, i32, i32, i32, i32, i32, double, i8, i32, i32, ptr, i32 }
%union.pthread_cond_t = type { %struct.__pthread_cond_s }
%struct.__pthread_cond_s = type { %union.__atomic_wide_counter, %union.__atomic_wide_counter, [2 x i32], [2 x i32], i32, i32, [2 x i32] }
%union.__atomic_wide_counter = type { i64 }
%struct.timeval = type { i64, i64 }
%struct.LIBEVENT_THREAD = type { i64, ptr, %struct.thread_notify, %struct.thread_notify, %union.pthread_mutex_t, %struct.iop_head_s, i32, i32, i32, %struct.thread_stats, [3 x %struct.io_queue_s], ptr, ptr, ptr, ptr, ptr, ptr, ptr, i32 }
%struct.thread_notify = type { %struct.event, i32 }
%struct.event = type { %struct.event_callback, %union.anon.0, i32, ptr, %union.anon.2, i16, i16, %struct.timeval }
%struct.event_callback = type { %struct.anon, i16, i8, i8, %union.anon, ptr }
%struct.anon = type { ptr, ptr }
%union.anon = type { ptr }
%union.anon.0 = type { %struct.anon.1 }
%struct.anon.1 = type { ptr, ptr }
%union.anon.2 = type { %struct.anon.3 }
%struct.anon.3 = type { %struct.anon.4, %struct.timeval }
%struct.anon.4 = type { ptr, ptr }
%struct.iop_head_s = type { ptr, ptr }
%struct.thread_stats = type { %union.pthread_mutex_t, i64, i64, i64, i64, i64, i64, i64, i64, i64, i64, i64, i64, i64, i64, i64, i64, i64, i64, i64, i64, i64, i64, i64, i64, i64, i64, i64, i64, i64, i64, [64 x %struct.slab_stats], [256 x i64], i64, i64, i64 }
%struct.slab_stats = type { i64, i64, i64, i64, i64, i64, i64, i64 }
%struct.io_queue_s = type { ptr, %struct.iop_head_s, ptr, i32 }

@settings = external global %struct.settings, align 8
@worker_hang_lock = internal global %union.pthread_mutex_t zeroinitializer, align 8
@stderr = external global ptr, align 8
@.str = private unnamed_addr constant [23 x i8] c"Unknown lock type: %d\0A\00", align 1
@init_lock = internal global %union.pthread_mutex_t zeroinitializer, align 8
@init_count = internal global i32 0, align 4
@threads = internal global ptr null, align 8
@init_cond = internal global %union.pthread_cond_t zeroinitializer, align 8

; Function Attrs: nounwind uwtable
define internal void @wait_for_thread_registration(i32 noundef %0) #0 {
  %2 = alloca i32, align 4
  store i32 %0, ptr %2, align 4, !tbaa !4
  br label %3

3:                                                ; preds = %7, %1
  %4 = load i32, ptr @init_count, align 4, !tbaa !4
  %5 = load i32, ptr %2, align 4, !tbaa !4
  %6 = icmp slt i32 %4, %5
  br i1 %6, label %7, label %9

7:                                                ; preds = %3
  %8 = call i32 @pthread_cond_wait(ptr noundef @init_cond, ptr noundef @init_lock)
  br label %3, !llvm.loop !51

9:                                                ; preds = %3
  ret void
}

; Function Attrs: nounwind uwtable
define dso_local void @pause_threads(i32 noundef %0) #0 {
  %2 = alloca i32, align 4
  %3 = alloca i32, align 4
  %4 = alloca i8, align 1
  %5 = alloca i32, align 4
  store i32 %0, ptr %2, align 4, !tbaa !4
  call void @llvm.lifetime.start.p0(i64 4, ptr %3) #8
  call void @llvm.lifetime.start.p0(i64 1, ptr %4) #8
  store i8 0, ptr %4, align 1, !tbaa !10
  %6 = load i32, ptr %2, align 4, !tbaa !4
  switch i32 %6, label %15 [
    i32 1, label %7
    i32 0, label %9
    i32 2, label %11
    i32 3, label %13
  ]

7:                                                ; preds = %1
  %8 = load ptr, ptr getelementptr inbounds nuw (%struct.settings, ptr @settings, i32 0, i32 59), align 8, !tbaa !12
  call void @slab_maintenance_pause(ptr noundef %8)
  call void @lru_maintainer_pause()
  call void @lru_crawler_pause()
  call void @storage_compact_pause()
  call void @storage_write_pause()
  br label %9

9:                                                ; preds = %1, %7
  store i8 1, ptr %4, align 1, !tbaa !10
  %10 = call i32 @pthread_mutex_lock(ptr noundef @worker_hang_lock) #8
  br label %19

11:                                               ; preds = %1
  %12 = load ptr, ptr getelementptr inbounds nuw (%struct.settings, ptr @settings, i32 0, i32 59), align 8, !tbaa !12
  call void @slab_maintenance_resume(ptr noundef %12)
  call void @lru_maintainer_resume()
  call void @lru_crawler_resume()
  call void @storage_compact_resume()
  call void @storage_write_resume()
  br label %13

13:                                               ; preds = %1, %11
  %14 = call i32 @pthread_mutex_unlock(ptr noundef @worker_hang_lock) #8
  br label %19

15:                                               ; preds = %1
  %16 = load ptr, ptr @stderr, align 8, !tbaa !18
  %17 = load i32, ptr %2, align 4, !tbaa !4
  %18 = call i32 (ptr, ptr, ...) @fprintf(ptr noundef %16, ptr noundef @.str, i32 noundef %17) #8
  br label %19

19:                                               ; preds = %15, %13, %9
  %20 = load i8, ptr %4, align 1, !tbaa !10, !range !20, !noundef !21
  %21 = trunc i8 %20 to i1
  br i1 %21, label %23, label %22

22:                                               ; preds = %19
  store i32 1, ptr %5, align 4
  br label %40

23:                                               ; preds = %19
  %24 = call i32 @pthread_mutex_lock(ptr noundef @init_lock) #8
  store i32 0, ptr @init_count, align 4, !tbaa !4
  store i32 0, ptr %3, align 4, !tbaa !4
  br label %25

25:                                               ; preds = %34, %23
  %26 = load i32, ptr %3, align 4, !tbaa !4
  %27 = load i32, ptr getelementptr inbounds nuw (%struct.settings, ptr @settings, i32 0, i32 13), align 4, !tbaa !22
  %28 = icmp slt i32 %26, %27
  br i1 %28, label %29, label %37

29:                                               ; preds = %25
  %30 = load ptr, ptr @threads, align 8, !tbaa !8
  %31 = load i32, ptr %3, align 4, !tbaa !4
  %32 = sext i32 %31 to i64
  %33 = getelementptr inbounds %struct.LIBEVENT_THREAD, ptr %30, i64 %32
  call void @notify_worker_fd(ptr noundef %33, i32 noundef 0, i32 noundef 1)
  br label %34

34:                                               ; preds = %29
  %35 = load i32, ptr %3, align 4, !tbaa !4
  %36 = add nsw i32 %35, 1
  store i32 %36, ptr %3, align 4, !tbaa !4
  br label %25, !llvm.loop !23

37:                                               ; preds = %25
  %38 = load i32, ptr getelementptr inbounds nuw (%struct.settings, ptr @settings, i32 0, i32 13), align 4, !tbaa !22
  call void @wait_for_thread_registration(i32 noundef %38)
  %39 = call i32 @pthread_mutex_unlock(ptr noundef @init_lock) #8
  store i32 0, ptr %5, align 4
  br label %40

40:                                               ; preds = %37, %22
  call void @llvm.lifetime.end.p0(i64 1, ptr %4) #8
  call void @llvm.lifetime.end.p0(i64 4, ptr %3) #8
  %41 = load i32, ptr %5, align 4
  switch i32 %41, label %43 [
    i32 0, label %42
    i32 1, label %42
  ]

42:                                               ; preds = %40, %40
  ret void

43:                                               ; preds = %40
  unreachable
}