; Function Attrs: nounwind uwtable
define dso_local void @pause_threads(i32 noundef %0) local_unnamed_addr #0 {
  switch i32 %0, label %13 [
    i32 1, label %2
    i32 0, label %4
    i32 2, label %9
    i32 3, label %11
  ]

2:                                                ; preds = %1
  %3 = load ptr, ptr getelementptr inbounds nuw (i8, ptr @settings, i64 264), align 8, !tbaa !10
  tail call void @slab_maintenance_pause(ptr noundef %3) #15
  tail call void @lru_maintainer_pause() #15
  tail call void @lru_crawler_pause() #15
  tail call void @storage_compact_pause() #15
  tail call void @storage_write_pause() #15
  br label %4

4:                                                ; preds = %2, %1
  %5 = tail call i32 @pthread_mutex_lock(ptr noundef nonnull @worker_hang_lock) #15
  %6 = tail call i32 @pthread_mutex_lock(ptr noundef nonnull @init_lock) #15
  store i32 0, ptr @init_count, align 4, !tbaa !8
  %7 = load i32, ptr getelementptr inbounds nuw (i8, ptr @settings, i64 84), align 4, !tbaa !17
  %8 = icmp sgt i32 %7, 0
  br i1 %8, label %.lr.ph, label %._crit_edge

9:                                                ; preds = %1
  %10 = load ptr, ptr getelementptr inbounds nuw (i8, ptr @settings, i64 264), align 8, !tbaa !10
  tail call void @slab_maintenance_resume(ptr noundef %10) #15
  tail call void @lru_maintainer_resume() #15
  tail call void @lru_crawler_resume() #15
  tail call void @storage_compact_resume() #15
  tail call void @storage_write_resume() #15
  br label %11

11:                                               ; preds = %9, %1
  %12 = tail call i32 @pthread_mutex_unlock(ptr noundef nonnull @worker_hang_lock) #15
  br label %.critedge

13:                                               ; preds = %1
  %14 = load ptr, ptr @stderr, align 8, !tbaa !18
  %15 = tail call i32 (ptr, ptr, ...) @fprintf(ptr noundef %14, ptr noundef nonnull @.str, i32 noundef %0) #16
  br label %.critedge

.lr.ph:                                           ; preds = %4, %.lr.ph
  %indvars.iv = phi i64 [ %indvars.iv.next, %.lr.ph ], [ 0, %4 ]
  %16 = load ptr, ptr @threads, align 8, !tbaa !4
  %17 = getelementptr inbounds nuw %struct.LIBEVENT_THREAD, ptr %16, i64 %indvars.iv
  tail call fastcc void @notify_worker_fd(ptr noundef %17, i32 noundef 0, i32 noundef 1)
  %indvars.iv.next = add nuw nsw i64 %indvars.iv, 1
  %18 = load i32, ptr getelementptr inbounds nuw (i8, ptr @settings, i64 84), align 4, !tbaa !17
  %19 = sext i32 %18 to i64
  %20 = icmp slt i64 %indvars.iv.next, %19
  br i1 %20, label %.lr.ph, label %._crit_edge.loopexit, !llvm.loop !20

._crit_edge.loopexit:                             ; preds = %.lr.ph
  %.pre = load i32, ptr @init_count, align 4, !tbaa !8
  br label %._crit_edge

._crit_edge:                                      ; preds = %._crit_edge.loopexit, %4
  %21 = phi i32 [ 0, %4 ], [ %.pre, %._crit_edge.loopexit ]
  %.lcssa = phi i32 [ %7, %4 ], [ %18, %._crit_edge.loopexit ]
  %22 = icmp slt i32 %21, %.lcssa
  br i1 %22, label %.lr.ph.i, label %wait_for_thread_registration.exit

.lr.ph.i:                                         ; preds = %._crit_edge, %.lr.ph.i
  %23 = tail call i32 @pthread_cond_wait(ptr noundef nonnull @init_cond, ptr noundef nonnull @init_lock) #15
  %24 = load i32, ptr @init_count, align 4, !tbaa !8
  %25 = icmp slt i32 %24, %.lcssa
  br i1 %25, label %.lr.ph.i, label %wait_for_thread_registration.exit, !llvm.loop !22

wait_for_thread_registration.exit:                ; preds = %.lr.ph.i, %._crit_edge
  %26 = tail call i32 @pthread_mutex_unlock(ptr noundef nonnull @init_lock) #15
  br label %.critedge

.critedge:                                        ; preds = %13, %11, %wait_for_thread_registration.exit
  ret void
}